target datalayout = "e-m:e-p270:32:32-p271:32:32-p272:64:64-i64:64-i128:128-f80:128-n8:16:32:64-S128"
target triple = "x86_64-pc-linux-gnu"

%struct.ident_t = type { i32, i32, i32, i32, ptr }
%"struct.std::_Vector_base.1" = type { %"struct.std::_Vector_base<float, std::allocator<float>>::_Vector_impl" }
%"struct.std::_Vector_base<float, std::allocator<float>>::_Vector_impl" = type { %"struct.std::_Vector_base<float, std::allocator<float>>::_Vector_impl_data" }
%"struct.std::_Vector_base<float, std::allocator<float>>::_Vector_impl_data" = type { ptr, ptr, ptr }
%"struct.faiss::Quantizer" = type { ptr, i64, i64 }

@1 = private unnamed_addr constant %struct.ident_t { i32 0, i32 514, i32 0, i32 22, ptr @0 }, align 8

; Function Attrs: mustprogress nounwind uwtable
define linkonce_odr noundef ptr @_ZNKSt6vectorIfSaIfEE11_M_data_ptrIfEEPT_S4_(ptr noundef nonnull align 8 dereferenceable(24) %0, ptr noundef %1) #1 comdat align 2 {
  %3 = alloca ptr, align 8
  %4 = alloca ptr, align 8
  store ptr %0, ptr %3, align 8, !tbaa !142
  store ptr %1, ptr %4, align 8, !tbaa !11
  %5 = load ptr, ptr %4, align 8, !tbaa !11
  ret ptr %5
}

; Function Attrs: mustprogress nounwind uwtable
define linkonce_odr noundef ptr @_ZNSt6vectorIfSaIfEE4dataEv(ptr noundef nonnull align 8 dereferenceable(24) %0) #1 comdat align 2 {
  %2 = alloca ptr, align 8
  store ptr %0, ptr %2, align 8, !tbaa !142
  %3 = load ptr, ptr %2, align 8
  %4 = getelementptr inbounds nuw %"struct.std::_Vector_base.1", ptr %3, i32 0, i32 0
  %5 = getelementptr inbounds nuw %"struct.std::_Vector_base<float, std::allocator<float>>::_Vector_impl_data", ptr %4, i32 0, i32 0
  %6 = load ptr, ptr %5, align 8, !tbaa !144
  %7 = call noundef ptr @_ZNKSt6vectorIfSaIfEE11_M_data_ptrIfEEPT_S4_(ptr noundef nonnull align 8 dereferenceable(24) %3, ptr noundef %6) #18
  ret ptr %7
}

; Function Attrs: noinline norecurse nounwind uwtable
define internal void @_ZN5faiss24ProductAdditiveQuantizer5trainEmPKf.omp_outlined(ptr noalias noundef %0, ptr noalias noundef %1, ptr noundef nonnull align 8 dereferenceable(8) %2, ptr noundef nonnull align 8 dereferenceable(24) %3, ptr noundef nonnull align 8 dereferenceable(8) %4, ptr noundef nonnull align 8 dereferenceable(8) %5, ptr noundef %6, ptr noundef nonnull align 8 dereferenceable(8) %7) #17 {
  %9 = alloca ptr, align 8
  %10 = alloca ptr, align 8
  %11 = alloca ptr, align 8
  %12 = alloca ptr, align 8
  %13 = alloca ptr, align 8
  %14 = alloca ptr, align 8
  %15 = alloca ptr, align 8
  %16 = alloca ptr, align 8
  %17 = alloca i64, align 8
  %18 = alloca i64, align 8
  %19 = alloca i64, align 8
  %20 = alloca i64, align 8
  %21 = alloca i64, align 8
  %22 = alloca i64, align 8
  %23 = alloca i64, align 8
  %24 = alloca i32, align 4
  %25 = alloca i64, align 8
  store ptr %0, ptr %9, align 8, !tbaa !68
  store ptr %1, ptr %10, align 8, !tbaa !68
  store ptr %2, ptr %11, align 8, !tbaa !94
  store ptr %3, ptr %12, align 8, !tbaa !142
  store ptr %4, ptr %13, align 8, !tbaa !63
  store ptr %5, ptr %14, align 8, !tbaa !145
  store ptr %6, ptr %15, align 8, !tbaa !4
  store ptr %7, ptr %16, align 8, !tbaa !94
  %26 = load ptr, ptr %11, align 8, !tbaa !94
  %27 = load ptr, ptr %12, align 8, !tbaa !142
  %28 = load ptr, ptr %13, align 8, !tbaa !63
  %29 = load ptr, ptr %14, align 8, !tbaa !145
  %30 = load ptr, ptr %15, align 8, !tbaa !4
  %31 = load ptr, ptr %16, align 8, !tbaa !94
  call void @llvm.lifetime.start.p0(i64 8, ptr %17) #18
  call void @llvm.lifetime.start.p0(i64 8, ptr %18) #18
  %32 = load i64, ptr %26, align 8, !tbaa !9
  store i64 %32, ptr %18, align 8, !tbaa !9
  call void @llvm.lifetime.start.p0(i64 8, ptr %19) #18
  %33 = load i64, ptr %18, align 8, !tbaa !9
  %34 = sub i64 %33, 0
  %35 = udiv i64 %34, 1
  %36 = sub i64 %35, 1
  store i64 %36, ptr %19, align 8, !tbaa !9
  call void @llvm.lifetime.start.p0(i64 8, ptr %20) #18
  store i64 0, ptr %20, align 8, !tbaa !9
  call void @llvm.lifetime.end.p0(i64 8, ptr %20) #18
  %37 = load i64, ptr %18, align 8, !tbaa !9
  %38 = icmp ult i64 0, %37
  br i1 %38, label %39, label %90

39:                                               ; preds = %8
  call void @llvm.lifetime.start.p0(i64 8, ptr %21) #18
  store i64 0, ptr %21, align 8, !tbaa !9
  call void @llvm.lifetime.start.p0(i64 8, ptr %22) #18
  %40 = load i64, ptr %19, align 8, !tbaa !9
  store i64 %40, ptr %22, align 8, !tbaa !9
  call void @llvm.lifetime.start.p0(i64 8, ptr %23) #18
  store i64 1, ptr %23, align 8, !tbaa !9
  call void @llvm.lifetime.start.p0(i64 4, ptr %24) #18
  store i32 0, ptr %24, align 4, !tbaa !56
  call void @llvm.lifetime.start.p0(i64 8, ptr %25) #18
  %41 = load ptr, ptr %9, align 8
  %42 = load i32, ptr %41, align 4, !tbaa !56
  call void @__kmpc_for_static_init_8u(ptr @1, i32 %42, i32 34, ptr %24, ptr %21, ptr %22, ptr %23, i64 1, i64 1)
  %43 = load i64, ptr %22, align 8, !tbaa !9
  %44 = load i64, ptr %19, align 8, !tbaa !9
  %45 = icmp ugt i64 %43, %44
  br i1 %45, label %46, label %48

46:                                               ; preds = %39
  %47 = load i64, ptr %19, align 8, !tbaa !9
  br label %50

48:                                               ; preds = %39
  %49 = load i64, ptr %22, align 8, !tbaa !9
  br label %50

50:                                               ; preds = %48, %46
  %51 = phi i64 [ %47, %46 ], [ %49, %48 ]
  store i64 %51, ptr %22, align 8, !tbaa !9
  %52 = load i64, ptr %21, align 8, !tbaa !9
  store i64 %52, ptr %17, align 8, !tbaa !9
  br label %53

53:                                               ; preds = %83, %50
  %54 = load i64, ptr %17, align 8, !tbaa !9
  %55 = load i64, ptr %22, align 8, !tbaa !9
  %56 = add i64 %55, 1
  %57 = icmp ult i64 %54, %56
  br i1 %57, label %59, label %58

58:                                               ; preds = %53
  br label %86

59:                                               ; preds = %53
  %60 = load i64, ptr %17, align 8, !tbaa !9
  %61 = mul i64 %60, 1
  %62 = add i64 0, %61
  store i64 %62, ptr %25, align 8, !tbaa !9
  %63 = call noundef ptr @_ZNSt6vectorIfSaIfEE4dataEv(ptr noundef nonnull align 8 dereferenceable(24) %27) #18
  %64 = load i64, ptr %25, align 8, !tbaa !9
  %65 = load ptr, ptr %28, align 8, !tbaa !53
  %66 = getelementptr inbounds nuw %"struct.faiss::Quantizer", ptr %65, i32 0, i32 1
  %67 = load i64, ptr %66, align 8, !tbaa !55
  %68 = mul i64 %64, %67
  %69 = getelementptr inbounds nuw float, ptr %63, i64 %68
  %70 = load ptr, ptr %29, align 8, !tbaa !11
  %71 = load i64, ptr %25, align 8, !tbaa !9
  %72 = getelementptr inbounds nuw %"struct.faiss::Quantizer", ptr %30, i32 0, i32 1
  %73 = load i64, ptr %72, align 8, !tbaa !55
  %74 = mul i64 %71, %73
  %75 = getelementptr inbounds nuw float, ptr %70, i64 %74
  %76 = load i64, ptr %31, align 8, !tbaa !9
  %77 = getelementptr inbounds nuw float, ptr %75, i64 %76
  %78 = load ptr, ptr %28, align 8, !tbaa !53
  %79 = getelementptr inbounds nuw %"struct.faiss::Quantizer", ptr %78, i32 0, i32 1
  %80 = load i64, ptr %79, align 8, !tbaa !55
  %81 = mul i64 %80, 4
  call void @llvm.memcpy.p0.p0.i64(ptr align 4 %69, ptr align 4 %77, i64 %81, i1 false)
  br label %82

82:                                               ; preds = %59
  br label %83

83:                                               ; preds = %82
  %84 = load i64, ptr %17, align 8, !tbaa !9
  %85 = add i64 %84, 1
  store i64 %85, ptr %17, align 8, !tbaa !9
  br label %53

86:                                               ; preds = %58
  br label %87

87:                                               ; preds = %86
  %88 = load ptr, ptr %9, align 8
  %89 = load i32, ptr %88, align 4, !tbaa !56
  call void @__kmpc_for_static_fini(ptr @1, i32 %89)
  call void @llvm.lifetime.end.p0(i64 8, ptr %25) #18
  call void @llvm.lifetime.end.p0(i64 4, ptr %24) #18
  call void @llvm.lifetime.end.p0(i64 8, ptr %23) #18
  call void @llvm.lifetime.end.p0(i64 8, ptr %22) #18
  call void @llvm.lifetime.end.p0(i64 8, ptr %21) #18
  br label %90

90:                                               ; preds = %87, %8
  call void @llvm.lifetime.end.p0(i64 8, ptr %19) #18
  call void @llvm.lifetime.end.p0(i64 8, ptr %18) #18
  call void @llvm.lifetime.end.p0(i64 8, ptr %17) #18
  ret void
}